; Function Attrs: nounwind uwtable
define hidden i32 @EVP_PKEY_print_params(ptr noundef %0, ptr noundef %1, i32 noundef %2, ptr noundef %3) local_unnamed_addr #0 {
  %5 = getelementptr inbounds nuw i8, ptr %1, i64 4
  %6 = load i32, ptr %5, align 4, !tbaa !6
  br label %9

7:                                                ; preds = %9
  %8 = add nuw nsw i64 %.06.i, 1
  %exitcond.not.i = icmp eq i64 %8, 3
  br i1 %exitcond.not.i, label %find_method.exit.thread, label %9, !llvm.loop !13

9:                                                ; preds = %7, %4
  %.06.i = phi i64 [ 0, %4 ], [ %8, %7 ]
  %10 = getelementptr inbounds nuw [3 x %struct.EVP_PKEY_PRINT_METHOD], ptr @kPrintMethods, i64 0, i64 %.06.i
  %11 = load i32, ptr %10, align 16, !tbaa !15
  %12 = icmp eq i32 %11, %6
  br i1 %12, label %find_method.exit, label %7

find_method.exit:                                 ; preds = %9
  %13 = getelementptr inbounds nuw i8, ptr %10, i64 24
  %14 = load ptr, ptr %13, align 8, !tbaa !19
  %.not13 = icmp eq ptr %14, null
  br i1 %.not13, label %find_method.exit.thread, label %15

15:                                               ; preds = %find_method.exit
  %16 = tail call i32 %14(ptr noundef %0, ptr noundef %1, i32 noundef %2, ptr noundef %3) #5
  br label %19

find_method.exit.thread:                          ; preds = %7, %find_method.exit
  %17 = tail call i32 @BIO_indent(ptr noundef %0, i32 noundef %2, i32 noundef 128) #5
  %18 = tail call i32 (ptr, ptr, ...) @BIO_printf(ptr noundef %0, ptr noundef nonnull @.str.41, ptr noundef nonnull @.str.2) #5
  br label %19

19:                                               ; preds = %find_method.exit.thread, %15
  %.0 = phi i32 [ %16, %15 ], [ 1, %find_method.exit.thread ]
  ret i32 %.0
}